target datalayout = "e-m:e-p270:32:32-p271:32:32-p272:64:64-i64:64-i128:128-f80:128-n8:16:32:64-S128"
target triple = "x86_64-pc-linux-gnu"

%struct.AVRational = type { i32, i32 }
%struct.AVCodecContext = type { ptr, i32, i32, ptr, i32, i32, ptr, ptr, ptr, i64, i32, i32, ptr, i32, %struct.AVRational, %struct.AVRational, %struct.AVRational, i32, i32, i32, i32, i32, %struct.AVRational, i32, i32, i32, i32, i32, i32, i32, i32, i32, i32, i32, ptr, ptr, i32, float, float, float, float, float, float, float, float, float, i32, i32, i32, i32, i32, i32, i32, i32, i32, i32, i32, i32, ptr, ptr, ptr, i32, i32, i32, i32, i32, i32, i32, i32, i32, i32, %struct.AVChannelLayout, i32, i32, i32, i32, i32, i32, i32, i32, ptr, i32, i32, i32, float, float, i32, i32, i32, i32, i32, ptr, i64, i64, float, float, i32, i32, ptr, ptr, i32, i32, i32, i32, i32, ptr, ptr, ptr, ptr, i32, i32, [8 x i64], i32, i32, i32, i32, i32, i32, i32, ptr, ptr, i32, i32, i32, i32, i32, i32, i32, i32, i32, i32, ptr, ptr, i32, i32, ptr, ptr, ptr, ptr, i32, i32, i64, i32, i32, i64, ptr, i64, ptr, i32, ptr, i32 }
%struct.AVChannelLayout = type { i32, i32, %union.anon.1, ptr }
%union.anon.1 = type { i64 }
%struct.CCaptionSubContext = type { ptr, ptr, i32, i32, i32, [2 x %struct.Screen], i32, i8, i8, i8, i8, i8, i8, [2 x %struct.AVBPrint], i32, i32, i32, i32, [2 x i64], i32, i64, [2 x i8], i32 }
%struct.Screen = type { [16 x [33 x i8]], [16 x [33 x i8]], [16 x [33 x i8]], [16 x [33 x i8]], [16 x [33 x i8]], i16 }
%struct.AVBPrint = type { ptr, i32, i32, i32, [1 x i8], [1000 x i8] }

; Function Attrs: nounwind uwtable
define internal void @flush_decoder(ptr noundef %0) #1 {
  %2 = alloca ptr, align 8
  %3 = alloca ptr, align 8
  store ptr %0, ptr %2, align 8, !tbaa !4
  call void @llvm.lifetime.start.p0(i64 8, ptr %3) #8
  %4 = load ptr, ptr %2, align 8, !tbaa !4
  %5 = getelementptr inbounds nuw %struct.AVCodecContext, ptr %4, i32 0, i32 6
  %6 = load ptr, ptr %5, align 8, !tbaa !9
  store ptr %6, ptr %3, align 8, !tbaa !29
  %7 = load ptr, ptr %3, align 8, !tbaa !29
  %8 = getelementptr inbounds nuw %struct.CCaptionSubContext, ptr %7, i32 0, i32 5
  %9 = getelementptr inbounds [2 x %struct.Screen], ptr %8, i64 0, i64 0
  %10 = getelementptr inbounds nuw %struct.Screen, ptr %9, i32 0, i32 5
  store i16 0, ptr %10, align 4, !tbaa !70
  %11 = load ptr, ptr %3, align 8, !tbaa !29
  %12 = getelementptr inbounds nuw %struct.CCaptionSubContext, ptr %11, i32 0, i32 5
  %13 = getelementptr inbounds [2 x %struct.Screen], ptr %12, i64 0, i64 1
  %14 = getelementptr inbounds nuw %struct.Screen, ptr %13, i32 0, i32 5
  store i16 0, ptr %14, align 2, !tbaa !70
  %15 = load ptr, ptr %3, align 8, !tbaa !29
  %16 = getelementptr inbounds nuw %struct.CCaptionSubContext, ptr %15, i32 0, i32 21
  %17 = getelementptr inbounds [2 x i8], ptr %16, i64 0, i64 0
  store i8 0, ptr %17, align 8, !tbaa !53
  %18 = load ptr, ptr %3, align 8, !tbaa !29
  %19 = getelementptr inbounds nuw %struct.CCaptionSubContext, ptr %18, i32 0, i32 21
  %20 = getelementptr inbounds [2 x i8], ptr %19, i64 0, i64 1
  store i8 0, ptr %20, align 1, !tbaa !53
  %21 = load ptr, ptr %3, align 8, !tbaa !29
  %22 = getelementptr inbounds nuw %struct.CCaptionSubContext, ptr %21, i32 0, i32 17
  store i32 2, ptr %22, align 4, !tbaa !33
  %23 = load ptr, ptr %3, align 8, !tbaa !29
  %24 = getelementptr inbounds nuw %struct.CCaptionSubContext, ptr %23, i32 0, i32 16
  store i32 2, ptr %24, align 8, !tbaa !35
  %25 = load ptr, ptr %3, align 8, !tbaa !29
  %26 = getelementptr inbounds nuw %struct.CCaptionSubContext, ptr %25, i32 0, i32 7
  store i8 10, ptr %26, align 4, !tbaa !36
  %27 = load ptr, ptr %3, align 8, !tbaa !29
  %28 = getelementptr inbounds nuw %struct.CCaptionSubContext, ptr %27, i32 0, i32 8
  store i8 0, ptr %28, align 1, !tbaa !72
  %29 = load ptr, ptr %3, align 8, !tbaa !29
  %30 = getelementptr inbounds nuw %struct.CCaptionSubContext, ptr %29, i32 0, i32 11
  store i8 0, ptr %30, align 8, !tbaa !73
  %31 = load ptr, ptr %3, align 8, !tbaa !29
  %32 = getelementptr inbounds nuw %struct.CCaptionSubContext, ptr %31, i32 0, i32 9
  store i8 0, ptr %32, align 2, !tbaa !74
  %33 = load ptr, ptr %3, align 8, !tbaa !29
  %34 = getelementptr inbounds nuw %struct.CCaptionSubContext, ptr %33, i32 0, i32 10
  store i8 8, ptr %34, align 1, !tbaa !34
  %35 = load ptr, ptr %3, align 8, !tbaa !29
  %36 = getelementptr inbounds nuw %struct.CCaptionSubContext, ptr %35, i32 0, i32 12
  store i8 0, ptr %36, align 1, !tbaa !75
  %37 = load ptr, ptr %3, align 8, !tbaa !29
  %38 = getelementptr inbounds nuw %struct.CCaptionSubContext, ptr %37, i32 0, i32 6
  store i32 0, ptr %38, align 8, !tbaa !76
  %39 = load ptr, ptr %3, align 8, !tbaa !29
  %40 = getelementptr inbounds nuw %struct.CCaptionSubContext, ptr %39, i32 0, i32 20
  store i64 0, ptr %40, align 8, !tbaa !63
  %41 = load ptr, ptr %3, align 8, !tbaa !29
  %42 = getelementptr inbounds nuw %struct.CCaptionSubContext, ptr %41, i32 0, i32 19
  store i32 0, ptr %42, align 8, !tbaa !64
  %43 = load ptr, ptr %3, align 8, !tbaa !29
  %44 = getelementptr inbounds nuw %struct.CCaptionSubContext, ptr %43, i32 0, i32 15
  store i32 0, ptr %44, align 4, !tbaa !55
  %45 = load ptr, ptr %2, align 8, !tbaa !4
  %46 = getelementptr inbounds nuw %struct.AVCodecContext, ptr %45, i32 0, i32 11
  %47 = load i32, ptr %46, align 4, !tbaa !77
  %48 = and i32 %47, 1073741824
  %49 = icmp ne i32 %48, 0
  br i1 %49, label %53, label %50

50:                                               ; preds = %1
  %51 = load ptr, ptr %3, align 8, !tbaa !29
  %52 = getelementptr inbounds nuw %struct.CCaptionSubContext, ptr %51, i32 0, i32 22
  store i32 0, ptr %52, align 4, !tbaa !62
  br label %53

53:                                               ; preds = %50, %1
  %54 = load ptr, ptr %3, align 8, !tbaa !29
  %55 = getelementptr inbounds nuw %struct.CCaptionSubContext, ptr %54, i32 0, i32 13
  %56 = getelementptr inbounds [2 x %struct.AVBPrint], ptr %55, i64 0, i64 0
  call void @av_bprint_clear(ptr noundef %56)
  %57 = load ptr, ptr %3, align 8, !tbaa !29
  %58 = getelementptr inbounds nuw %struct.CCaptionSubContext, ptr %57, i32 0, i32 13
  %59 = getelementptr inbounds [2 x %struct.AVBPrint], ptr %58, i64 0, i64 1
  call void @av_bprint_clear(ptr noundef %59)
  call void @llvm.lifetime.end.p0(i64 8, ptr %3) #8
  ret void
}