; Function Attrs: nounwind uwtable
define internal void @flush_decoder(ptr noundef readonly captures(none) %0) #1 {
  %2 = getelementptr inbounds nuw i8, ptr %0, i64 32
  %3 = load ptr, ptr %2, align 8, !tbaa !4
  %4 = getelementptr inbounds nuw i8, ptr %3, i64 2668
  store i16 0, ptr %4, align 4, !tbaa !51
  %5 = getelementptr inbounds nuw i8, ptr %3, i64 5310
  store i16 0, ptr %5, align 2, !tbaa !51
  %6 = getelementptr inbounds nuw i8, ptr %3, i64 7424
  store i8 0, ptr %6, align 8, !tbaa !42
  %7 = getelementptr inbounds nuw i8, ptr %3, i64 7425
  store i8 0, ptr %7, align 1, !tbaa !42
  %8 = getelementptr inbounds nuw i8, ptr %3, i64 7388
  store i32 2, ptr %8, align 4, !tbaa !29
  %9 = getelementptr inbounds nuw i8, ptr %3, i64 7384
  store i32 2, ptr %9, align 8, !tbaa !31
  %10 = getelementptr inbounds nuw i8, ptr %3, i64 5316
  store i8 10, ptr %10, align 4, !tbaa !32
  %11 = getelementptr inbounds nuw i8, ptr %3, i64 5317
  store i8 0, ptr %11, align 1, !tbaa !48
  %12 = getelementptr inbounds nuw i8, ptr %3, i64 5320
  store i8 0, ptr %12, align 8, !tbaa !46
  %13 = getelementptr inbounds nuw i8, ptr %3, i64 5318
  store i8 0, ptr %13, align 2, !tbaa !45
  %14 = getelementptr inbounds nuw i8, ptr %3, i64 5319
  store i8 8, ptr %14, align 1, !tbaa !30
  %15 = getelementptr inbounds nuw i8, ptr %3, i64 5321
  store i8 0, ptr %15, align 1, !tbaa !47
  %16 = getelementptr inbounds nuw i8, ptr %3, i64 5312
  store i32 0, ptr %16, align 8, !tbaa !44
  %17 = getelementptr inbounds nuw i8, ptr %3, i64 7416
  store i64 0, ptr %17, align 8, !tbaa !61
  %18 = getelementptr inbounds nuw i8, ptr %3, i64 7408
  store i32 0, ptr %18, align 8, !tbaa !62
  %19 = getelementptr inbounds nuw i8, ptr %3, i64 7380
  store i32 0, ptr %19, align 4, !tbaa !55
  %20 = getelementptr inbounds nuw i8, ptr %0, i64 68
  %21 = load i32, ptr %20, align 4, !tbaa !67
  %22 = and i32 %21, 1073741824
  %.not = icmp eq i32 %22, 0
  br i1 %.not, label %23, label %25

23:                                               ; preds = %1
  %24 = getelementptr inbounds nuw i8, ptr %3, i64 7428
  store i32 0, ptr %24, align 4, !tbaa !60
  br label %25

25:                                               ; preds = %23, %1
  %26 = getelementptr inbounds nuw i8, ptr %3, i64 5328
  tail call void @av_bprint_clear(ptr noundef nonnull %26) #9
  %27 = getelementptr inbounds nuw i8, ptr %3, i64 6352
  tail call void @av_bprint_clear(ptr noundef nonnull %27) #9
  ret void
}